target datalayout = "e-m:e-p270:32:32-p271:32:32-p272:64:64-i64:64-i128:128-f80:128-n8:16:32:64-S128"
target triple = "x86_64-unknown-linux-gnu"

%"class.zmq::zmtp_engine_t" = type <{ %"class.zmq::stream_engine_base_t.base", [7 x i8], %"class.zmq::msg_t", %"class.zmq::msg_t", i64, [64 x i8], [64 x i8], i32, i8, [3 x i8], i32, [4 x i8] }>
%"class.zmq::stream_engine_base_t.base" = type <{ %"class.zmq::io_object_t", %"struct.zmq::i_engine", %"struct.zmq::options_t", ptr, i64, ptr, ptr, i64, ptr, ptr, { i64, i64 }, { i64, i64 }, ptr, i8, i8, [6 x i8], %"struct.zmq::endpoint_uri_pair_t", i8, i8, i8, i8, [4 x i8], %"class.std::__cxx11::basic_string", i32, [4 x i8], ptr, i8, i8, [6 x i8], %"class.zmq::msg_t", i8, [7 x i8], ptr, ptr, i8 }>
%"class.zmq::io_object_t" = type { %"struct.zmq::i_poll_events", ptr }
%"struct.zmq::i_poll_events" = type { ptr }
%"struct.zmq::i_engine" = type { ptr }
%"struct.zmq::options_t" = type { i32, i32, i64, i8, [256 x i8], i32, i32, i32, i32, i32, i32, i32, i32, i8, %"struct.zmq::atomic_value_t", i32, i32, i32, i32, i32, i32, i64, i32, i32, i8, i32, i8, i8, i8, i8, i8, %"class.std::__cxx11::basic_string", %"class.std::__cxx11::basic_string", %"class.std::__cxx11::basic_string", i32, i32, i32, i32, %"class.std::vector", %"class.std::set", %"class.std::set", %"class.std::set.6", i32, i32, %"class.std::__cxx11::basic_string", %"class.std::__cxx11::basic_string", %"class.std::__cxx11::basic_string", [32 x i8], [32 x i8], [32 x i8], %"class.std::__cxx11::basic_string", %"class.std::__cxx11::basic_string", i32, i32, i8, i32, i8, i32, i8, i16, i32, i32, i32, %"class.std::__cxx11::basic_string", i8, i8, i8, i32, i32, i8, i32, %"class.std::map", i32, %"class.std::__cxx11::basic_string", %"class.std::__cxx11::basic_string", %"class.std::__cxx11::basic_string", %"class.std::__cxx11::basic_string", i8, %"class.std::vector.21", i8, %"class.std::vector.21", i8, %"class.std::vector.21", i8, i32, i8, i32, i32, i32, i32, i32, i8, i32 }
%"struct.zmq::atomic_value_t" = type { %"struct.std::atomic" }
%"struct.std::atomic" = type { %"struct.std::__atomic_base" }
%"struct.std::__atomic_base" = type { i32 }
%"class.std::vector" = type { %"struct.std::_Vector_base" }
%"struct.std::_Vector_base" = type { %"struct.std::_Vector_base<zmq::tcp_address_mask_t, std::allocator<zmq::tcp_address_mask_t>>::_Vector_impl" }
%"struct.std::_Vector_base<zmq::tcp_address_mask_t, std::allocator<zmq::tcp_address_mask_t>>::_Vector_impl" = type { %"struct.std::_Vector_base<zmq::tcp_address_mask_t, std::allocator<zmq::tcp_address_mask_t>>::_Vector_impl_data" }
%"struct.std::_Vector_base<zmq::tcp_address_mask_t, std::allocator<zmq::tcp_address_mask_t>>::_Vector_impl_data" = type { ptr, ptr, ptr }
%"class.std::set" = type { %"class.std::_Rb_tree" }
%"class.std::_Rb_tree" = type { %"struct.std::_Rb_tree<unsigned int, unsigned int, std::_Identity<unsigned int>, std::less<unsigned int>>::_Rb_tree_impl" }
%"struct.std::_Rb_tree<unsigned int, unsigned int, std::_Identity<unsigned int>, std::less<unsigned int>>::_Rb_tree_impl" = type { %"struct.std::_Rb_tree_key_compare", %"struct.std::_Rb_tree_header" }
%"struct.std::_Rb_tree_key_compare" = type { %"struct.std::less" }
%"struct.std::less" = type { i8 }
%"struct.std::_Rb_tree_header" = type { %"struct.std::_Rb_tree_node_base", i64 }
%"struct.std::_Rb_tree_node_base" = type { i32, ptr, ptr, ptr }
%"class.std::set.6" = type { %"class.std::_Rb_tree.7" }
%"class.std::_Rb_tree.7" = type { %"struct.std::_Rb_tree<int, int, std::_Identity<int>, std::less<int>>::_Rb_tree_impl" }
%"struct.std::_Rb_tree<int, int, std::_Identity<int>, std::less<int>>::_Rb_tree_impl" = type { %"struct.std::_Rb_tree_key_compare.11", %"struct.std::_Rb_tree_header" }
%"struct.std::_Rb_tree_key_compare.11" = type { %"struct.std::less.12" }
%"struct.std::less.12" = type { i8 }
%"class.std::map" = type { %"class.std::_Rb_tree.14" }
%"class.std::_Rb_tree.14" = type { %"struct.std::_Rb_tree<std::__cxx11::basic_string<char>, std::pair<const std::__cxx11::basic_string<char>, std::__cxx11::basic_string<char>>, std::_Select1st<std::pair<const std::__cxx11::basic_string<char>, std::__cxx11::basic_string<char>>>, std::less<std::__cxx11::basic_string<char>>>::_Rb_tree_impl" }
%"struct.std::_Rb_tree<std::__cxx11::basic_string<char>, std::pair<const std::__cxx11::basic_string<char>, std::__cxx11::basic_string<char>>, std::_Select1st<std::pair<const std::__cxx11::basic_string<char>, std::__cxx11::basic_string<char>>>, std::less<std::__cxx11::basic_string<char>>>::_Rb_tree_impl" = type { %"struct.std::_Rb_tree_key_compare.18", %"struct.std::_Rb_tree_header" }
%"struct.std::_Rb_tree_key_compare.18" = type { %"struct.std::less.19" }
%"struct.std::less.19" = type { i8 }
%"class.std::vector.21" = type { %"struct.std::_Vector_base.22" }
%"struct.std::_Vector_base.22" = type { %"struct.std::_Vector_base<unsigned char, std::allocator<unsigned char>>::_Vector_impl" }
%"struct.std::_Vector_base<unsigned char, std::allocator<unsigned char>>::_Vector_impl" = type { %"struct.std::_Vector_base<unsigned char, std::allocator<unsigned char>>::_Vector_impl_data" }
%"struct.std::_Vector_base<unsigned char, std::allocator<unsigned char>>::_Vector_impl_data" = type { ptr, ptr, ptr }
%"struct.zmq::endpoint_uri_pair_t" = type <{ %"class.std::__cxx11::basic_string", %"class.std::__cxx11::basic_string", i32, [4 x i8] }>
%"class.std::__cxx11::basic_string" = type { %"struct.std::__cxx11::basic_string<char>::_Alloc_hider", i64, %union.anon }
%"struct.std::__cxx11::basic_string<char>::_Alloc_hider" = type { ptr }
%union.anon = type { i64, [8 x i8] }
%"class.zmq::msg_t" = type { %union.anon.26 }
%union.anon.26 = type { %struct.anon }
%struct.anon = type { ptr, [34 x i8], i8, i8, i32, %"union.zmq::msg_t::group_t" }
%"union.zmq::msg_t::group_t" = type { %struct.anon.28 }
%struct.anon.28 = type { i8, ptr }

; Function Attrs: mustprogress uwtable
define noundef i32 @_ZN3zmq13zmtp_engine_t16receive_greetingEv(ptr noundef nonnull align 8 dereferenceable(1976) %this) #0 align 2 {
entry:
  %retval = alloca i32, align 4
  %this.addr = alloca ptr, align 8
  %unversioned = alloca i8, align 1
  %n = alloca i32, align 4
  store ptr %this, ptr %this.addr, align 8
  %this1 = load ptr, ptr %this.addr, align 8
  store i8 0, ptr %unversioned, align 1
  br label %while.cond

while.cond:                                       ; preds = %if.end26, %if.then20, %entry
  %_greeting_bytes_read = getelementptr inbounds %"class.zmq::zmtp_engine_t", ptr %this1, i32 0, i32 7
  %0 = load i32, ptr %_greeting_bytes_read, align 8
  %conv = zext i32 %0 to i64
  %_greeting_size = getelementptr inbounds %"class.zmq::zmtp_engine_t", ptr %this1, i32 0, i32 4
  %1 = load i64, ptr %_greeting_size, align 8
  %cmp = icmp ult i64 %conv, %1
  br i1 %cmp, label %while.body, label %while.end

while.body:                                       ; preds = %while.cond
  %_greeting_recv = getelementptr inbounds %"class.zmq::zmtp_engine_t", ptr %this1, i32 0, i32 5
  %arraydecay = getelementptr inbounds [64 x i8], ptr %_greeting_recv, i64 0, i64 0
  %_greeting_bytes_read2 = getelementptr inbounds %"class.zmq::zmtp_engine_t", ptr %this1, i32 0, i32 7
  %2 = load i32, ptr %_greeting_bytes_read2, align 8
  %idx.ext = zext i32 %2 to i64
  %add.ptr = getelementptr inbounds i8, ptr %arraydecay, i64 %idx.ext
  %_greeting_size3 = getelementptr inbounds %"class.zmq::zmtp_engine_t", ptr %this1, i32 0, i32 4
  %3 = load i64, ptr %_greeting_size3, align 8
  %_greeting_bytes_read4 = getelementptr inbounds %"class.zmq::zmtp_engine_t", ptr %this1, i32 0, i32 7
  %4 = load i32, ptr %_greeting_bytes_read4, align 8
  %conv5 = zext i32 %4 to i64
  %sub = sub i64 %3, %conv5
  %call = call noundef i32 @_ZN3zmq20stream_engine_base_t4readEPvm(ptr noundef nonnull align 8 dereferenceable(1689) %this1, ptr noundef %add.ptr, i64 noundef %sub)
  store i32 %call, ptr %n, align 4
  %5 = load i32, ptr %n, align 4
  %cmp6 = icmp eq i32 %5, -1
  br i1 %cmp6, label %if.then, label %if.end10

if.then:                                          ; preds = %while.body
  %call7 = call ptr @__errno_location() #13
  %6 = load i32, ptr %call7, align 4
  %cmp8 = icmp ne i32 %6, 11
  br i1 %cmp8, label %if.then9, label %if.end

if.then9:                                         ; preds = %if.then
  call void @_ZN3zmq20stream_engine_base_t5errorENS_8i_engine14error_reason_tE(ptr noundef nonnull align 8 dereferenceable(1689) %this1, i32 noundef 1)
  br label %if.end

if.end:                                           ; preds = %if.then9, %if.then
  store i32 -1, ptr %retval, align 4
  br label %return

if.end10:                                         ; preds = %while.body
  %7 = load i32, ptr %n, align 4
  %_greeting_bytes_read11 = getelementptr inbounds %"class.zmq::zmtp_engine_t", ptr %this1, i32 0, i32 7
  %8 = load i32, ptr %_greeting_bytes_read11, align 8
  %add = add i32 %8, %7
  store i32 %add, ptr %_greeting_bytes_read11, align 8
  %_greeting_recv12 = getelementptr inbounds %"class.zmq::zmtp_engine_t", ptr %this1, i32 0, i32 5
  %arrayidx = getelementptr inbounds [64 x i8], ptr %_greeting_recv12, i64 0, i64 0
  %9 = load i8, ptr %arrayidx, align 8
  %conv13 = zext i8 %9 to i32
  %cmp14 = icmp ne i32 %conv13, 255
  br i1 %cmp14, label %if.then15, label %if.end16

if.then15:                                        ; preds = %if.end10
  store i8 1, ptr %unversioned, align 1
  br label %while.end

if.end16:                                         ; preds = %if.end10
  %_greeting_bytes_read17 = getelementptr inbounds %"class.zmq::zmtp_engine_t", ptr %this1, i32 0, i32 7
  %10 = load i32, ptr %_greeting_bytes_read17, align 8
  %conv18 = zext i32 %10 to i64
  %cmp19 = icmp ult i64 %conv18, 10
  br i1 %cmp19, label %if.then20, label %if.end21

if.then20:                                        ; preds = %if.end16
  br label %while.cond, !llvm.loop !5

if.end21:                                         ; preds = %if.end16
  %_greeting_recv22 = getelementptr inbounds %"class.zmq::zmtp_engine_t", ptr %this1, i32 0, i32 5
  %arrayidx23 = getelementptr inbounds [64 x i8], ptr %_greeting_recv22, i64 0, i64 9
  %11 = load i8, ptr %arrayidx23, align 1
  %conv24 = zext i8 %11 to i32
  %and = and i32 %conv24, 1
  %tobool = icmp ne i32 %and, 0
  br i1 %tobool, label %if.end26, label %if.then25

if.then25:                                        ; preds = %if.end21
  store i8 1, ptr %unversioned, align 1
  br label %while.end

if.end26:                                         ; preds = %if.end21
  call void @_ZN3zmq13zmtp_engine_t26receive_greeting_versionedEv(ptr noundef nonnull align 8 dereferenceable(1976) %this1)
  br label %while.cond, !llvm.loop !5

while.end:                                        ; preds = %if.then25, %if.then15, %while.cond
  %12 = load i8, ptr %unversioned, align 1
  %tobool27 = trunc i8 %12 to i1
  %cond = select i1 %tobool27, i32 1, i32 0
  store i32 %cond, ptr %retval, align 4
  br label %return

return:                                           ; preds = %while.end, %if.end
  %13 = load i32, ptr %retval, align 4
  ret i32 %13
}