; Function Attrs: mustprogress uwtable
define noundef i32 @_ZN3zmq13zmtp_engine_t16receive_greetingEv(ptr noundef nonnull align 8 dereferenceable(1976) %this) local_unnamed_addr #0 align 2 {
entry:
  %_greeting_bytes_read = getelementptr inbounds i8, ptr %this, i64 1960
  %_greeting_size = getelementptr inbounds i8, ptr %this, i64 1824
  %0 = load i32, ptr %_greeting_bytes_read, align 8
  %conv3 = zext i32 %0 to i64
  %1 = load i64, ptr %_greeting_size, align 8
  %cmp4 = icmp ugt i64 %1, %conv3
  br i1 %cmp4, label %while.body.lr.ph, label %return

while.body.lr.ph:                                 ; preds = %entry
  %_greeting_recv = getelementptr inbounds i8, ptr %this, i64 1832
  %arrayidx23 = getelementptr inbounds i8, ptr %this, i64 1841
  br label %while.body

while.body:                                       ; preds = %while.body.lr.ph, %while.cond.backedge
  %2 = phi i64 [ %1, %while.body.lr.ph ], [ %9, %while.cond.backedge ]
  %conv5 = phi i64 [ %conv3, %while.body.lr.ph ], [ %conv, %while.cond.backedge ]
  %add.ptr = getelementptr inbounds i8, ptr %_greeting_recv, i64 %conv5
  %sub = sub i64 %2, %conv5
  %call = tail call noundef i32 @_ZN3zmq20stream_engine_base_t4readEPvm(ptr noundef nonnull align 8 dereferenceable(1689) %this, ptr noundef nonnull %add.ptr, i64 noundef %sub)
  %cmp6 = icmp eq i32 %call, -1
  br i1 %cmp6, label %if.then, label %if.end10

if.then:                                          ; preds = %while.body
  %call7 = tail call ptr @__errno_location() #16
  %3 = load i32, ptr %call7, align 4
  %cmp8.not = icmp eq i32 %3, 11
  br i1 %cmp8.not, label %return, label %if.then9

if.then9:                                         ; preds = %if.then
  tail call void @_ZN3zmq20stream_engine_base_t5errorENS_8i_engine14error_reason_tE(ptr noundef nonnull align 8 dereferenceable(1689) %this, i32 noundef 1)
  br label %return

if.end10:                                         ; preds = %while.body
  %4 = load i32, ptr %_greeting_bytes_read, align 8
  %add = add i32 %4, %call
  store i32 %add, ptr %_greeting_bytes_read, align 8
  %5 = load i8, ptr %_greeting_recv, align 8
  %cmp14.not = icmp eq i8 %5, -1
  br i1 %cmp14.not, label %if.end16, label %return

if.end16:                                         ; preds = %if.end10
  %cmp19 = icmp ult i32 %add, 10
  br i1 %cmp19, label %while.cond.backedge, label %if.end21

if.end21:                                         ; preds = %if.end16
  %6 = load i8, ptr %arrayidx23, align 1
  %7 = and i8 %6, 1
  %tobool.not = icmp eq i8 %7, 0
  br i1 %tobool.not, label %return, label %if.end26

if.end26:                                         ; preds = %if.end21
  tail call void @_ZN3zmq13zmtp_engine_t26receive_greeting_versionedEv(ptr noundef nonnull align 8 dereferenceable(1976) %this)
  %.pre = load i32, ptr %_greeting_bytes_read, align 8
  br label %while.cond.backedge

while.cond.backedge:                              ; preds = %if.end26, %if.end16
  %8 = phi i32 [ %.pre, %if.end26 ], [ %add, %if.end16 ]
  %conv = zext i32 %8 to i64
  %9 = load i64, ptr %_greeting_size, align 8
  %cmp = icmp ugt i64 %9, %conv
  br i1 %cmp, label %while.body, label %return, !llvm.loop !4

return:                                           ; preds = %if.end21, %if.end10, %while.cond.backedge, %entry, %if.then, %if.then9
  %retval.0 = phi i32 [ -1, %if.then9 ], [ -1, %if.then ], [ 0, %entry ], [ 1, %if.end21 ], [ 1, %if.end10 ], [ 0, %while.cond.backedge ]
  ret i32 %retval.0
}